Certificate:
    Data:
        Version: 3 (0x2)
        Serial Number: 1 (0x1)
        Signature Algorithm: md5WithRSAEncryption
        Issuer: C=US, ST=Delaware, L=Dover, O=Apache Open For Business, OU=Test Certificate Signing, CN=ofbiz.apache.org/emailAddress=dev@ofbiz.apache.org
        Validity
            Not Before: Jul  7 10:42:24 2007 GMT
            Not After : Jul  6 10:42:24 2008 GMT
        Subject: C=US, ST=Delaware, L=Dover, O=Apache Open For Business, OU=SSL Server Testing, CN=ofbiz.apache.org/emailAddress=dev@ofbiz.apache.org
        Subject Public Key Info:
            Public Key Algorithm: rsaEncryption
            RSA Public Key: (1024 bit)
                Modulus (1024 bit):
                    00:a8:fa:76:21:30:02:1c:59:c7:b9:6a:80:64:d3:
                    71:7f:92:3e:72:19:60:3d:31:65:f3:b1:d8:93:ae:
                    b0:45:34:25:d0:b1:71:f8:96:ca:50:28:33:ef:b6:
                    98:8b:1a:87:be:a3:61:5a:fc:60:71:e2:53:e5:8c:
                    53:e8:19:05:0c:06:82:02:64:38:ef:11:bd:5c:a8:
                    a0:6c:92:b4:36:ed:b2:49:15:44:4a:be:36:9f:bb:
                    10:8d:5e:13:1b:87:75:a0:97:d4:7e:ce:88:aa:36:
                    c2:8b:85:f9:44:4f:3c:eb:67:e8:98:8d:ec:a8:e0:
                    7c:2b:ba:a7:ff:37:9e:b2:35
                Exponent: 65537 (0x10001)
        X509v3 extensions:
            X509v3 Basic Constraints:
                CA:FALSE
            Netscape Comment:
                OpenSSL Generated Certificate
            X509v3 Subject Key Identifier:
                D9:18:24:78:3E:35:B7:D6:56:54:C2:60:00:84:51:17:D6:C0:EC:29
            X509v3 Authority Key Identifier:
                keyid:E0:33:EB:33:AA:3D:2D:9E:BF:1A:56:07:7C:F2:C1:A0:11:B3:FD:BC
                DirName:/C=US/ST=Delaware/L=Dover/O=Apache Open For Business/OU=Test Certificate Signing/CN=ofbiz.apache.org/emailAddress=dev@ofbiz.apache.org
                serial:97:D8:C1:67:C6:1B:53:12

    Signature Algorithm: md5WithRSAEncryption
        e9:49:7a:58:8c:cf:16:55:2a:77:61:d8:56:76:13:fa:ac:89:
        94:39:22:fc:58:13:2e:88:38:57:7f:57:13:56:62:38:fc:5c:
        7a:12:3d:b2:eb:88:a9:25:f6:16:8e:4f:6d:1b:da:83:17:65:
        b7:01:b2:26:ac:8a:e3:b6:69:0c:b8:3a:7f:5c:cb:11:38:ab:
        b2:a5:de:49:24:87:31:8b:ae:bb:da:f6:10:57:d1:de:d1:8f:
        38:78:9d:41:cb:b0:95:37:b8:8c:54:09:77:4e:e2:da:1b:a6:
        f3:47:30:93:65:e7:b8:d2:78:07:72:f6:d4:33:dc:d1:ad:80:
        86:ea
-----BEGIN CERTIFICATE-----
MIIEKjCCA5OgAwIBAgIBATANBgkqhkiG9w0BAQQFADCBtjELMAkGA1UEBhMCVVMx
ETAPBgNVBAgTCERlbGF3YXJlMQ4wDAYDVQQHEwVEb3ZlcjEhMB8GA1UEChMYQXBh
Y2hlIE9wZW4gRm9yIEJ1c2luZXNzMSEwHwYDVQQLExhUZXN0IENlcnRpZmljYXRl
IFNpZ25pbmcxGTAXBgNVBAMTEG9mYml6LmFwYWNoZS5vcmcxIzAhBgkqhkiG9w0B
CQEWFGRldkBvZmJpei5hcGFjaGUub3JnMB4XDTA3MDcwNzEwNDIyNFoXDTA4MDcw
NjEwNDIyNFowgbAxCzAJBgNVBAYTAlVTMREwDwYDVQQIEwhEZWxhd2FyZTEOMAwG
A1UEBxMFRG92ZXIxITAfBgNVBAoTGEFwYWNoZSBPcGVuIEZvciBCdXNpbmVzczEb
MBkGA1UECxMSU1NMIFNlcnZlciBUZXN0aW5nMRkwFwYDVQQDExBvZmJpei5hcGFj
aGUub3JnMSMwIQYJKoZIhvcNAQkBFhRkZXZAb2ZiaXouYXBhY2hlLm9yZzCBnzAN
BgkqhkiG9w0BAQEFAAOBjQAwgYkCgYEAqPp2ITACHFnHuWqAZNNxf5I+chlgPTFl
87HYk66wRTQl0LFx+JbKUCgz77aYixqHvqNhWvxgceJT5YxT6BkFDAaCAmQ47xG9
XKigbJK0Nu2ySRVESr42n7sQjV4TG4d1oJfUfs6IqjbCi4X5RE8862fomI3sqOB8
K7qn/zeesjUCAwEAAaOCAUowggFGMAkGA1UdEwQCMAAwLAYJYIZIAYb4QgENBB8W
HU9wZW5TU0wgR2VuZXJhdGVkIENlcnRpZmljYXRlMB0GA1UdDgQWBBTZGCR4PjW3
1lZUwmAAhFEX1sDsKTCB6wYDVR0jBIHjMIHggBTgM+szqj0tnr8aVgd88sGgEbP9
vKGBvKSBuTCBtjELMAkGA1UEBhMCVVMxETAPBgNVBAgTCERlbGF3YXJlMQ4wDAYD
VQQHEwVEb3ZlcjEhMB8GA1UEChMYQXBhY2hlIE9wZW4gRm9yIEJ1c2luZXNzMSEw
HwYDVQQLExhUZXN0IENlcnRpZmljYXRlIFNpZ25pbmcxGTAXBgNVBAMTEG9mYml6
LmFwYWNoZS5vcmcxIzAhBgkqhkiG9w0BCQEWFGRldkBvZmJpei5hcGFjaGUub3Jn
ggkAl9jBZ8YbUxIwDQYJKoZIhvcNAQEEBQADgYEA6Ul6WIzPFlUqd2HYVnYT+qyJ
lDki/FgTLog4V39XE1ZiOPxcehI9suuIqSX2Fo5PbRvagxdltwGyJqyK47ZpDLg6
f1zLETirsqXeSSSHMYuuu9r2EFfR3tGPOHidQcuwlTe4jFQJd07i2hum80cwk2Xn
uNJ4B3L21DPc0a2Ahuo=
-----END CERTIFICATE-----
