Certificate:
    Data:
        Version: 3 (0x2)
        Serial Number: 2 (0x2)
        Signature Algorithm: md5WithRSAEncryption
        Issuer: C=US, ST=Delaware, L=Dover, O=Apache Open For Business, OU=Test Certificate Signing, CN=ofbiz.apache.org/emailAddress=dev@ofbiz.apache.org
        Validity
            Not Before: Jul  7 11:46:17 2007 GMT
            Not After : Jul  6 11:46:17 2008 GMT
        Subject: C=US, ST=Delaware, L=Dover, O=Apache Open For Business, OU=SSL Server Testing, CN=ofbiz.apache.org
        Subject Public Key Info:
            Public Key Algorithm: rsaEncryption
            RSA Public Key: (1024 bit)
                Modulus (1024 bit):
                    00:86:d7:d2:9b:0b:30:3d:f5:87:16:d3:d7:e5:74:
                    50:c4:75:70:fc:a4:4f:68:07:dd:13:4c:87:2a:6e:
                    d8:bc:76:ae:f1:ad:d3:d1:3e:39:39:ea:35:cf:7c:
                    37:b2:ef:ab:cd:28:66:98:de:f5:04:a2:a7:a9:ec:
                    5e:36:8d:0f:2b:a1:e7:5b:b1:4f:ad:26:df:6d:5b:
                    a9:bb:f2:93:6c:7c:d8:f5:00:08:37:98:83:53:5c:
                    0a:03:ac:e1:65:d6:0f:27:a0:67:fe:96:57:56:8e:
                    75:d7:4b:c3:70:02:8b:da:a4:19:52:c0:7f:b2:01:
                    99:2a:7c:83:9d:ba:64:80:01
                Exponent: 65537 (0x10001)
        X509v3 extensions:
            X509v3 Basic Constraints:
                CA:FALSE
            Netscape Comment:
                OpenSSL Generated Certificate
            X509v3 Subject Key Identifier:
                0A:91:01:94:85:FD:F0:69:58:DD:A8:65:EF:E7:6C:8C:59:C1:BF:3E
            X509v3 Authority Key Identifier:
                keyid:E0:33:EB:33:AA:3D:2D:9E:BF:1A:56:07:7C:F2:C1:A0:11:B3:FD:BC
                DirName:/C=US/ST=Delaware/L=Dover/O=Apache Open For Business/OU=Test Certificate Signing/CN=ofbiz.apache.org/emailAddress=dev@ofbiz.apache.org
                serial:97:D8:C1:67:C6:1B:53:12

    Signature Algorithm: md5WithRSAEncryption
        2c:ae:c0:8e:1d:16:f8:ab:64:33:ca:5c:6c:d3:5a:bc:b5:e1:
        92:c5:8b:e3:26:56:bd:b6:d1:dc:d5:9f:34:50:60:1f:5d:79:
        ff:9f:d3:ce:70:aa:db:b5:21:e4:05:87:0b:8d:cd:b2:ea:03:
        d0:6f:2a:e4:f4:dc:98:bf:92:1b:0a:a4:c4:6f:f7:63:de:47:
        db:32:6d:70:d6:00:fc:3c:ca:50:4e:31:45:09:72:89:aa:c2:
        4d:56:eb:50:a0:1c:9f:e6:5b:6d:d1:71:6d:72:c6:7d:2f:55:
        e6:45:31:0f:15:de:88:4e:e2:ea:7d:0e:62:34:97:97:4d:cd:
        cb:66
-----BEGIN CERTIFICATE-----
MIIEBTCCA26gAwIBAgIBAjANBgkqhkiG9w0BAQQFADCBtjELMAkGA1UEBhMCVVMx
ETAPBgNVBAgTCERlbGF3YXJlMQ4wDAYDVQQHEwVEb3ZlcjEhMB8GA1UEChMYQXBh
Y2hlIE9wZW4gRm9yIEJ1c2luZXNzMSEwHwYDVQQLExhUZXN0IENlcnRpZmljYXRl
IFNpZ25pbmcxGTAXBgNVBAMTEG9mYml6LmFwYWNoZS5vcmcxIzAhBgkqhkiG9w0B
CQEWFGRldkBvZmJpei5hcGFjaGUub3JnMB4XDTA3MDcwNzExNDYxN1oXDTA4MDcw
NjExNDYxN1owgYsxCzAJBgNVBAYTAlVTMREwDwYDVQQIEwhEZWxhd2FyZTEOMAwG
A1UEBxMFRG92ZXIxITAfBgNVBAoTGEFwYWNoZSBPcGVuIEZvciBCdXNpbmVzczEb
MBkGA1UECxMSU1NMIFNlcnZlciBUZXN0aW5nMRkwFwYDVQQDExBvZmJpei5hcGFj
aGUub3JnMIGfMA0GCSqGSIb3DQEBAQUAA4GNADCBiQKBgQCG19KbCzA99YcW09fl
dFDEdXD8pE9oB90TTIcqbti8dq7xrdPRPjk56jXPfDey76vNKGaY3vUEoqep7F42
jQ8roedbsU+tJt9tW6m78pNsfNj1AAg3mINTXAoDrOFl1g8noGf+lldWjnXXS8Nw
AovapBlSwH+yAZkqfIOdumSAAQIDAQABo4IBSjCCAUYwCQYDVR0TBAIwADAsBglg
hkgBhvhCAQ0EHxYdT3BlblNTTCBHZW5lcmF0ZWQgQ2VydGlmaWNhdGUwHQYDVR0O
BBYEFAqRAZSF/fBpWN2oZe/nbIxZwb8+MIHrBgNVHSMEgeMwgeCAFOAz6zOqPS2e
vxpWB3zywaARs/28oYG8pIG5MIG2MQswCQYDVQQGEwJVUzERMA8GA1UECBMIRGVs
YXdhcmUxDjAMBgNVBAcTBURvdmVyMSEwHwYDVQQKExhBcGFjaGUgT3BlbiBGb3Ig
QnVzaW5lc3MxITAfBgNVBAsTGFRlc3QgQ2VydGlmaWNhdGUgU2lnbmluZzEZMBcG
A1UEAxMQb2ZiaXouYXBhY2hlLm9yZzEjMCEGCSqGSIb3DQEJARYUZGV2QG9mYml6
LmFwYWNoZS5vcmeCCQCX2MFnxhtTEjANBgkqhkiG9w0BAQQFAAOBgQAsrsCOHRb4
q2Qzylxs01q8teGSxYvjJla9ttHc1Z80UGAfXXn/n9POcKrbtSHkBYcLjc2y6gPQ
byrk9NyYv5IbCqTEb/dj3kfbMm1w1gD8PMpQTjFFCXKJqsJNVutQoByf5ltt0XFt
csZ9L1XmRTEPFd6ITuLqfQ5iNJeXTc3LZg==
-----END CERTIFICATE-----
